	.file	"simplesync.c"
	.text
.Ltext0:
	.section	.rodata.str1.8,"aMS",@progbits,1
	.align 8
.LC0:
	.string	"About to increase variable %d times\n"
	.section	.rodata.str1.1,"aMS",@progbits,1
.LC1:
	.string	"Done increasing variable.\n"
	.text
	.p2align 4
	.globl	increase_fn
	.type	increase_fn, @function
increase_fn:
.LVL0:
.LFB51:
	.file 1 "simplesync.c"
	.loc 1 42 1 view -0
	.cfi_startproc
	.loc 1 42 1 is_stmt 0 view .LVU1
	endbr64
	subq	$24, %rsp
	.cfi_def_cfa_offset 32
.LBB12:
.LBB13:
	.file 2 "/usr/include/x86_64-linux-gnu/bits/stdio2.h"
	.loc 2 100 10 view .LVU2
	movl	$10000000, %ecx
	movl	$1, %esi
.LBE13:
.LBE12:
	.loc 1 42 1 view .LVU3
	movq	%fs:40, %rax
	movq	%rax, 8(%rsp)
	xorl	%eax, %eax
	.loc 1 43 5 is_stmt 1 view .LVU4
	.loc 1 44 5 view .LVU5
	.loc 1 44 19 is_stmt 0 view .LVU6
	movq	%rdi, (%rsp)
	.loc 1 46 5 is_stmt 1 view .LVU7
.LVL1:
.LBB16:
.LBI12:
	.loc 2 98 1 view .LVU8
.LBB14:
	.loc 2 100 3 view .LVU9
	.loc 2 100 10 is_stmt 0 view .LVU10
	movq	stderr(%rip), %rdi
.LVL2:
	.loc 2 100 10 view .LVU11
	leaq	.LC0(%rip), %rdx
	call	__fprintf_chk@PLT
.LVL3:
	.loc 2 100 10 view .LVU12
.LBE14:
.LBE16:
	.loc 1 47 5 is_stmt 1 view .LVU13
	.loc 1 47 17 view .LVU14
.LBB17:
.LBB15:
	.loc 2 100 10 is_stmt 0 view .LVU15
	movl	$10000000, %eax
.LVL4:
	.p2align 4,,10
	.p2align 3
.L2:
	.loc 2 100 10 view .LVU16
.LBE15:
.LBE17:
	.loc 1 49 9 is_stmt 1 view .LVU17
	.loc 1 51 13 view .LVU18
	lock addq	$1, (%rsp)
	.loc 1 47 24 view .LVU19
.LVL5:
	.loc 1 47 17 view .LVU20
	.loc 1 47 5 is_stmt 0 view .LVU21
	subl	$1, %eax
.LVL6:
	.loc 1 47 5 view .LVU22
	jne	.L2
	.loc 1 60 5 is_stmt 1 view .LVU23
.LVL7:
.LBB18:
.LBI18:
	.loc 2 98 1 view .LVU24
.LBB19:
	.loc 2 100 3 view .LVU25
	.loc 2 100 10 is_stmt 0 view .LVU26
	movq	stderr(%rip), %rcx
	movl	$26, %edx
	movl	$1, %esi
	leaq	.LC1(%rip), %rdi
	call	fwrite@PLT
.LVL8:
	.loc 2 100 10 view .LVU27
.LBE19:
.LBE18:
	.loc 1 62 5 is_stmt 1 view .LVU28
	.loc 1 63 1 is_stmt 0 view .LVU29
	movq	8(%rsp), %rax
	xorq	%fs:40, %rax
	jne	.L7
	xorl	%eax, %eax
	addq	$24, %rsp
	.cfi_remember_state
	.cfi_def_cfa_offset 8
	ret
.L7:
	.cfi_restore_state
	call	__stack_chk_fail@PLT
.LVL9:
	.cfi_endproc
.LFE51:
	.size	increase_fn, .-increase_fn
	.section	.rodata.str1.8
	.align 8
.LC2:
	.string	"About to decrease variable %d times\n"
	.section	.rodata.str1.1
.LC3:
	.string	"Done decreasing variable.\n"
	.text
	.p2align 4
	.globl	decrease_fn
	.type	decrease_fn, @function
decrease_fn:
.LVL10:
.LFB52:
	.loc 1 66 1 is_stmt 1 view -0
	.cfi_startproc
	.loc 1 66 1 is_stmt 0 view .LVU31
	endbr64
	subq	$24, %rsp
	.cfi_def_cfa_offset 32
.LBB20:
.LBB21:
	.loc 2 100 10 view .LVU32
	movl	$10000000, %ecx
	movl	$1, %esi
.LBE21:
.LBE20:
	.loc 1 66 1 view .LVU33
	movq	%fs:40, %rax
	movq	%rax, 8(%rsp)
	xorl	%eax, %eax
	.loc 1 67 5 is_stmt 1 view .LVU34
	.loc 1 68 5 view .LVU35
	.loc 1 68 19 is_stmt 0 view .LVU36
	movq	%rdi, (%rsp)
	.loc 1 70 5 is_stmt 1 view .LVU37
.LVL11:
.LBB24:
.LBI20:
	.loc 2 98 1 view .LVU38
.LBB22:
	.loc 2 100 3 view .LVU39
	.loc 2 100 10 is_stmt 0 view .LVU40
	movq	stderr(%rip), %rdi
.LVL12:
	.loc 2 100 10 view .LVU41
	leaq	.LC2(%rip), %rdx
	call	__fprintf_chk@PLT
.LVL13:
	.loc 2 100 10 view .LVU42
.LBE22:
.LBE24:
	.loc 1 71 5 is_stmt 1 view .LVU43
	.loc 1 71 17 view .LVU44
.LBB25:
.LBB23:
	.loc 2 100 10 is_stmt 0 view .LVU45
	movl	$10000000, %eax
.LVL14:
	.p2align 4,,10
	.p2align 3
.L9:
	.loc 2 100 10 view .LVU46
.LBE23:
.LBE25:
	.loc 1 73 9 is_stmt 1 view .LVU47
	.loc 1 75 13 view .LVU48
	lock subq	$1, (%rsp)
	.loc 1 71 24 view .LVU49
.LVL15:
	.loc 1 71 17 view .LVU50
	.loc 1 71 5 is_stmt 0 view .LVU51
	subl	$1, %eax
.LVL16:
	.loc 1 71 5 view .LVU52
	jne	.L9
	.loc 1 85 5 is_stmt 1 view .LVU53
.LVL17:
.LBB26:
.LBI26:
	.loc 2 98 1 view .LVU54
.LBB27:
	.loc 2 100 3 view .LVU55
	.loc 2 100 10 is_stmt 0 view .LVU56
	movq	stderr(%rip), %rcx
	movl	$26, %edx
	movl	$1, %esi
	leaq	.LC3(%rip), %rdi
	call	fwrite@PLT
.LVL18:
	.loc 2 100 10 view .LVU57
.LBE27:
.LBE26:
	.loc 1 87 5 is_stmt 1 view .LVU58
	.loc 1 88 1 is_stmt 0 view .LVU59
	movq	8(%rsp), %rax
	xorq	%fs:40, %rax
	jne	.L13
	xorl	%eax, %eax
	addq	$24, %rsp
	.cfi_remember_state
	.cfi_def_cfa_offset 8
	ret
.L13:
	.cfi_restore_state
	call	__stack_chk_fail@PLT
.LVL19:
	.cfi_endproc
.LFE52:
	.size	decrease_fn, .-decrease_fn
	.section	.rodata.str1.1
.LC4:
	.string	""
.LC5:
	.string	"NOT "
.LC6:
	.string	"pthread_create"
.LC7:
	.string	"pthread_join"
.LC8:
	.string	"%sOK, val = %d.\n"
	.section	.text.startup,"ax",@progbits
	.p2align 4
	.globl	main
	.type	main, @function
main:
.LVL20:
.LFB53:
	.loc 1 91 1 is_stmt 1 view -0
	.cfi_startproc
	.loc 1 91 1 is_stmt 0 view .LVU61
	endbr64
	pushq	%r12
	.cfi_def_cfa_offset 16
	.cfi_offset 12, -16
	.loc 1 100 11 view .LVU62
	xorl	%esi, %esi
.LVL21:
	.loc 1 100 11 view .LVU63
	leaq	increase_fn(%rip), %rdx
	.loc 1 91 1 view .LVU64
	pushq	%rbx
	.cfi_def_cfa_offset 24
	.cfi_offset 3, -24
	subq	$40, %rsp
	.cfi_def_cfa_offset 64
	.loc 1 91 1 view .LVU65
	movq	%fs:40, %rax
	movq	%rax, 24(%rsp)
	xorl	%eax, %eax
	.loc 1 92 5 is_stmt 1 view .LVU66
	.loc 1 93 5 view .LVU67
	.loc 1 95 5 view .LVU68
	.loc 1 100 11 is_stmt 0 view .LVU69
	leaq	4(%rsp), %r12
	leaq	8(%rsp), %rdi
.LVL22:
	.loc 1 95 9 view .LVU70
	movl	$0, 4(%rsp)
	.loc 1 100 5 is_stmt 1 view .LVU71
	.loc 1 100 11 is_stmt 0 view .LVU72
	movq	%r12, %rcx
	call	pthread_create@PLT
.LVL23:
	.loc 1 101 5 is_stmt 1 view .LVU73
	.loc 1 101 8 is_stmt 0 view .LVU74
	testl	%eax, %eax
	jne	.L30
	.loc 1 106 5 is_stmt 1 view .LVU75
	.loc 1 106 11 is_stmt 0 view .LVU76
	leaq	16(%rsp), %rdi
	movq	%r12, %rcx
	leaq	decrease_fn(%rip), %rdx
	xorl	%esi, %esi
	call	pthread_create@PLT
.LVL24:
	.loc 1 106 11 view .LVU77
	movl	%eax, %ebx
.LVL25:
	.loc 1 107 5 is_stmt 1 view .LVU78
	.loc 1 107 8 is_stmt 0 view .LVU79
	testl	%eax, %eax
	jne	.L29
	.loc 1 116 5 is_stmt 1 view .LVU80
	.loc 1 116 11 is_stmt 0 view .LVU81
	movq	8(%rsp), %rdi
	xorl	%esi, %esi
	call	pthread_join@PLT
.LVL26:
	.loc 1 116 11 view .LVU82
	movl	%eax, %ebx
.LVL27:
	.loc 1 117 5 is_stmt 1 view .LVU83
	.loc 1 117 8 is_stmt 0 view .LVU84
	testl	%eax, %eax
	jne	.L31
.LVL28:
.L17:
	.loc 1 118 9 is_stmt 1 discriminator 1 view .LVU85
	.loc 1 119 5 discriminator 1 view .LVU86
	.loc 1 119 11 is_stmt 0 discriminator 1 view .LVU87
	movq	16(%rsp), %rdi
	xorl	%esi, %esi
	call	pthread_join@PLT
.LVL29:
	movl	%eax, %ebx
.LVL30:
	.loc 1 120 5 is_stmt 1 discriminator 1 view .LVU88
	.loc 1 120 8 is_stmt 0 discriminator 1 view .LVU89
	testl	%eax, %eax
	jne	.L32
.LVL31:
.L18:
	.loc 1 121 9 is_stmt 1 discriminator 1 view .LVU90
	.loc 1 126 5 discriminator 1 view .LVU91
	.loc 1 126 15 is_stmt 0 discriminator 1 view .LVU92
	movl	4(%rsp), %ecx
	xorl	%r12d, %r12d
	.loc 1 128 5 discriminator 1 view .LVU93
	leaq	.LC5(%rip), %rax
	leaq	.LC4(%rip), %rdx
.LBB28:
.LBB29:
	.loc 2 107 10 discriminator 1 view .LVU94
	leaq	.LC8(%rip), %rsi
	movl	$1, %edi
.LBE29:
.LBE28:
	.loc 1 126 15 discriminator 1 view .LVU95
	testl	%ecx, %ecx
	.loc 1 128 5 discriminator 1 view .LVU96
	cmovne	%rax, %rdx
	.loc 1 126 15 discriminator 1 view .LVU97
	sete	%r12b
.LVL32:
	.loc 1 128 5 is_stmt 1 discriminator 1 view .LVU98
.LBB31:
.LBI28:
	.loc 2 105 1 discriminator 1 view .LVU99
.LBB30:
	.loc 2 107 3 discriminator 1 view .LVU100
	.loc 2 107 10 is_stmt 0 discriminator 1 view .LVU101
	xorl	%eax, %eax
	call	__printf_chk@PLT
.LVL33:
	.loc 2 107 10 discriminator 1 view .LVU102
.LBE30:
.LBE31:
	.loc 1 130 5 is_stmt 1 discriminator 1 view .LVU103
	.loc 1 131 1 is_stmt 0 discriminator 1 view .LVU104
	movq	24(%rsp), %rax
	xorq	%fs:40, %rax
	jne	.L33
	.loc 1 131 1 view .LVU105
	addq	$40, %rsp
	.cfi_remember_state
	.cfi_def_cfa_offset 24
	movl	%r12d, %eax
.LVL34:
	.loc 1 131 1 view .LVU106
	popq	%rbx
	.cfi_def_cfa_offset 16
.LVL35:
	.loc 1 131 1 view .LVU107
	popq	%r12
	.cfi_def_cfa_offset 8
	ret
.LVL36:
.L31:
	.cfi_restore_state
	.loc 1 118 9 is_stmt 1 view .LVU108
	.loc 1 118 9 view .LVU109
	call	__errno_location@PLT
.LVL37:
	.loc 1 118 9 is_stmt 0 view .LVU110
	leaq	.LC7(%rip), %rdi
	movl	%ebx, (%rax)
	.loc 1 118 9 is_stmt 1 view .LVU111
	call	perror@PLT
.LVL38:
	jmp	.L17
.LVL39:
.L32:
	.loc 1 121 9 view .LVU112
	.loc 1 121 9 view .LVU113
	call	__errno_location@PLT
.LVL40:
	.loc 1 121 9 is_stmt 0 view .LVU114
	leaq	.LC7(%rip), %rdi
	movl	%ebx, (%rax)
	.loc 1 121 9 is_stmt 1 view .LVU115
	call	perror@PLT
.LVL41:
	jmp	.L18
.LVL42:
.L30:
	.loc 1 121 9 is_stmt 0 view .LVU116
	movl	%eax, %ebx
	.loc 1 103 9 is_stmt 1 view .LVU117
	.loc 1 103 9 view .LVU118
.LVL43:
.L29:
	.loc 1 109 9 view .LVU119
	.loc 1 109 9 view .LVU120
	call	__errno_location@PLT
.LVL44:
	leaq	.LC6(%rip), %rdi
	movl	%ebx, (%rax)
	.loc 1 109 9 view .LVU121
	call	perror@PLT
.LVL45:
	.loc 1 109 9 view .LVU122
	.loc 1 110 9 view .LVU123
	movl	$1, %edi
	call	exit@PLT
.LVL46:
.L33:
	.loc 1 131 1 is_stmt 0 view .LVU124
	call	__stack_chk_fail@PLT
.LVL47:
	.cfi_endproc
.LFE53:
	.size	main, .-main
	.globl	mutex1
	.bss
	.align 32
	.type	mutex1, @object
	.size	mutex1, 40
mutex1:
	.zero	40
	.text
.Letext0:
	.file 3 "/usr/lib/gcc/x86_64-linux-gnu/9/include/stddef.h"
	.file 4 "/usr/include/x86_64-linux-gnu/bits/types.h"
	.file 5 "/usr/include/x86_64-linux-gnu/bits/types/struct_FILE.h"
	.file 6 "/usr/include/x86_64-linux-gnu/bits/types/FILE.h"
	.file 7 "/usr/include/stdio.h"
	.file 8 "/usr/include/x86_64-linux-gnu/bits/sys_errlist.h"
	.file 9 "/usr/include/x86_64-linux-gnu/bits/thread-shared-types.h"
	.file 10 "/usr/include/x86_64-linux-gnu/bits/struct_mutex.h"
	.file 11 "/usr/include/x86_64-linux-gnu/bits/pthreadtypes.h"
	.file 12 "/usr/include/unistd.h"
	.file 13 "/usr/include/x86_64-linux-gnu/bits/getopt_core.h"
	.file 14 "/usr/include/time.h"
	.file 15 "/usr/include/pthread.h"
	.file 16 "/usr/include/errno.h"
	.file 17 "/usr/include/stdlib.h"
	.file 18 "<built-in>"
	.section	.note.GNU-stack,"",@progbits
	.section	.note.gnu.property,"a"
	.align 8
	.long	 1f - 0f
	.long	 4f - 1f
	.long	 5
0:
	.string	 "GNU"
1:
	.align 8
	.long	 0xc0000002
	.long	 3f - 2f
2:
	.long	 0x3
3:
	.align 8
4:
